target datalayout = "e-m:e-p270:32:32-p271:32:32-p272:64:64-i64:64-i128:128-f80:128-n8:16:32:64-S128"
target triple = "x86_64-pc-linux-gnu"

%struct._clusterNode = type { i64, [40 x i8], [40 x i8], i32, i64, [2048 x i8], ptr, i32, i32, i32, ptr, ptr, i64, i64, i64, i64, i64, i64, i64, i64, i64, [46 x i8], ptr, ptr, i32, i32, i32, ptr, ptr, ptr }

; Function Attrs: nounwind uwtable
define dso_local i32 @auxShardIdSetter(ptr noundef %0, ptr noundef %1, i32 noundef %2) #0 {
  %4 = alloca i32, align 4
  %5 = alloca ptr, align 8
  %6 = alloca ptr, align 8
  %7 = alloca i32, align 4
  %8 = alloca i32, align 4
  store ptr %0, ptr %5, align 8, !tbaa !5
  store ptr %1, ptr %6, align 8, !tbaa !47
  store i32 %2, ptr %7, align 4, !tbaa !46
  %9 = load ptr, ptr %6, align 8, !tbaa !47
  %10 = load i32, ptr %7, align 4, !tbaa !46
  %11 = call i32 @verifyClusterNodeId(ptr noundef %9, i32 noundef %10)
  %12 = icmp eq i32 %11, -1
  br i1 %12, label %13, label %14

13:                                               ; preds = %3
  store i32 -1, ptr %4, align 4
  br label %59

14:                                               ; preds = %3
  %15 = load ptr, ptr %5, align 8, !tbaa !5
  %16 = getelementptr inbounds nuw %struct._clusterNode, ptr %15, i32 0, i32 2
  %17 = getelementptr inbounds [40 x i8], ptr %16, i64 0, i64 0
  %18 = load ptr, ptr %6, align 8, !tbaa !47
  call void @llvm.memcpy.p0.p0.i64(ptr align 8 %17, ptr align 1 %18, i64 40, i1 false)
  call void @llvm.lifetime.start.p0(i64 4, ptr %8) #16
  store i32 0, ptr %8, align 4, !tbaa !46
  br label %19

19:                                               ; preds = %53, %14
  %20 = load i32, ptr %8, align 4, !tbaa !46
  %21 = load ptr, ptr %5, align 8, !tbaa !5
  %22 = getelementptr inbounds nuw %struct._clusterNode, ptr %21, i32 0, i32 9
  %23 = load i32, ptr %22, align 8, !tbaa !48
  %24 = icmp slt i32 %20, %23
  br i1 %24, label %26, label %25

25:                                               ; preds = %19
  call void @llvm.lifetime.end.p0(i64 4, ptr %8) #16
  br label %56

26:                                               ; preds = %19
  %27 = load ptr, ptr %5, align 8, !tbaa !5
  %28 = getelementptr inbounds nuw %struct._clusterNode, ptr %27, i32 0, i32 10
  %29 = load ptr, ptr %28, align 8, !tbaa !49
  %30 = load i32, ptr %8, align 4, !tbaa !46
  %31 = sext i32 %30 to i64
  %32 = getelementptr inbounds ptr, ptr %29, i64 %31
  %33 = load ptr, ptr %32, align 8, !tbaa !5
  %34 = getelementptr inbounds nuw %struct._clusterNode, ptr %33, i32 0, i32 2
  %35 = getelementptr inbounds [40 x i8], ptr %34, i64 0, i64 0
  %36 = load ptr, ptr %5, align 8, !tbaa !5
  %37 = getelementptr inbounds nuw %struct._clusterNode, ptr %36, i32 0, i32 2
  %38 = getelementptr inbounds [40 x i8], ptr %37, i64 0, i64 0
  %39 = call i32 @memcmp(ptr noundef %35, ptr noundef %38, i64 noundef 40) #17
  %40 = icmp ne i32 %39, 0
  br i1 %40, label %41, label %52

41:                                               ; preds = %26
  %42 = load ptr, ptr %5, align 8, !tbaa !5
  %43 = getelementptr inbounds nuw %struct._clusterNode, ptr %42, i32 0, i32 10
  %44 = load ptr, ptr %43, align 8, !tbaa !49
  %45 = load i32, ptr %8, align 4, !tbaa !46
  %46 = sext i32 %45 to i64
  %47 = getelementptr inbounds ptr, ptr %44, i64 %46
  %48 = load ptr, ptr %47, align 8, !tbaa !5
  %49 = load ptr, ptr %5, align 8, !tbaa !5
  %50 = getelementptr inbounds nuw %struct._clusterNode, ptr %49, i32 0, i32 2
  %51 = getelementptr inbounds [40 x i8], ptr %50, i64 0, i64 0
  call void @updateShardId(ptr noundef %48, ptr noundef %51)
  br label %52

52:                                               ; preds = %41, %26
  br label %53

53:                                               ; preds = %52
  %54 = load i32, ptr %8, align 4, !tbaa !46
  %55 = add nsw i32 %54, 1
  store i32 %55, ptr %8, align 4, !tbaa !46
  br label %19, !llvm.loop !50

56:                                               ; preds = %25
  %57 = load ptr, ptr %6, align 8, !tbaa !47
  %58 = load ptr, ptr %5, align 8, !tbaa !5
  call void @clusterAddNodeToShard(ptr noundef %57, ptr noundef %58)
  store i32 0, ptr %4, align 4
  br label %59

59:                                               ; preds = %56, %13
  %60 = load i32, ptr %4, align 4
  ret i32 %60
}