; Function Attrs: nounwind uwtable
define dso_local range(i32 -1, 1) i32 @auxShardIdSetter(ptr noundef %0, ptr noundef %1, i32 noundef %2) #3 {
  %4 = tail call i32 @verifyClusterNodeId(ptr noundef %1, i32 noundef %2) #33
  %5 = icmp eq i32 %4, -1
  br i1 %5, label %23, label %6

6:                                                ; preds = %3
  %7 = getelementptr inbounds nuw i8, ptr %0, i64 48
  tail call void @llvm.memcpy.p0.p0.i64(ptr noundef nonnull align 8 dereferenceable(40) %7, ptr noundef nonnull align 1 dereferenceable(40) %1, i64 40, i1 false)
  %8 = getelementptr inbounds nuw i8, ptr %0, i64 2168
  %9 = load i32, ptr %8, align 8, !tbaa !39
  %10 = icmp sgt i32 %9, 0
  br i1 %10, label %.lr.ph, label %._crit_edge

.lr.ph:                                           ; preds = %6
  %11 = getelementptr inbounds nuw i8, ptr %0, i64 2176
  br label %12

._crit_edge:                                      ; preds = %19, %6
  tail call void @clusterAddNodeToShard(ptr noundef nonnull %1, ptr noundef nonnull %0)
  br label %23

12:                                               ; preds = %.lr.ph, %19
  %13 = phi i32 [ %9, %.lr.ph ], [ %20, %19 ]
  %indvars.iv = phi i64 [ 0, %.lr.ph ], [ %indvars.iv.next, %19 ]
  %14 = load ptr, ptr %11, align 8, !tbaa !45
  %15 = getelementptr inbounds nuw ptr, ptr %14, i64 %indvars.iv
  %16 = load ptr, ptr %15, align 8, !tbaa !46
  %17 = getelementptr inbounds nuw i8, ptr %16, i64 48
  %bcmp = tail call i32 @bcmp(ptr noundef nonnull dereferenceable(40) %17, ptr noundef nonnull dereferenceable(40) %7, i64 40)
  %.not = icmp eq i32 %bcmp, 0
  br i1 %.not, label %19, label %18

18:                                               ; preds = %12
  tail call fastcc void @updateShardId(ptr noundef nonnull %16, ptr noundef nonnull %7)
  %.pre = load i32, ptr %8, align 8, !tbaa !39
  br label %19

19:                                               ; preds = %12, %18
  %20 = phi i32 [ %13, %12 ], [ %.pre, %18 ]
  %indvars.iv.next = add nuw nsw i64 %indvars.iv, 1
  %21 = sext i32 %20 to i64
  %22 = icmp slt i64 %indvars.iv.next, %21
  br i1 %22, label %12, label %._crit_edge, !llvm.loop !47

23:                                               ; preds = %3, %._crit_edge
  %.015 = phi i32 [ 0, %._crit_edge ], [ -1, %3 ]
  ret i32 %.015
}